target datalayout = "e-m:e-p270:32:32-p271:32:32-p272:64:64-i64:64-i128:128-f80:128-n8:16:32:64-S128"
target triple = "x86_64-pc-linux-gnu"

%struct.Node = type { i32 }
%struct.List = type { i32, i32, i32, ptr, [0 x %union.ListCell] }
%union.ListCell = type { ptr }
%struct.Expr = type { i32 }
%struct.IndexOptInfo = type { i32, i32, i32, ptr, i32, double, i32, i32, i32, ptr, ptr, ptr, ptr, ptr, ptr, ptr, ptr, ptr, i32, ptr, ptr, ptr, ptr, i8, i8, i8, i8, i8, i8, i8, i8, i8, i8, i8, i8, i8, ptr }
%struct.RelOptInfo = type { i32, i32, ptr, double, i8, i8, i8, ptr, ptr, ptr, ptr, ptr, ptr, ptr, ptr, ptr, ptr, i32, i32, i32, i16, i16, ptr, ptr, ptr, ptr, ptr, ptr, ptr, ptr, i32, double, double, ptr, ptr, ptr, i32, i32, i32, i32, i8, ptr, ptr, ptr, ptr, ptr, %struct.QualCost, i32, ptr, i8, i8, ptr, ptr, ptr, ptr, i32, ptr, i8, ptr, ptr, ptr, ptr, ptr, ptr }
%struct.QualCost = type { double, double }
%struct.Var = type { %struct.Expr, i32, i16, i32, i32, i32, ptr, i32, i32, i32, i16, i32 }
%struct.RelabelType = type { %struct.Expr, ptr, i32, i32, i32, i32, i32 }

@.str.1 = private unnamed_addr constant [13 x i8] c"createplan.c\00", align 1
@.str.5 = private unnamed_addr constant [47 x i8] c"index key does not match expected index column\00", align 1
@__func__.fix_indexqual_operand = private unnamed_addr constant [22 x i8] c"fix_indexqual_operand\00", align 1
@.str.6 = private unnamed_addr constant [33 x i8] c"too few entries in indexprs list\00", align 1

; Function Attrs: inlinehint nounwind uwtable
define internal ptr @lnext(ptr noundef %0, ptr noundef %1) #4 {
  %3 = alloca ptr, align 8
  %4 = alloca ptr, align 8
  %5 = alloca ptr, align 8
  store ptr %0, ptr %4, align 8
  store ptr %1, ptr %5, align 8
  %6 = load ptr, ptr %5, align 8
  %7 = getelementptr inbounds nuw %union.ListCell, ptr %6, i32 1
  store ptr %7, ptr %5, align 8
  %8 = load ptr, ptr %5, align 8
  %9 = load ptr, ptr %4, align 8
  %10 = getelementptr inbounds nuw %struct.List, ptr %9, i32 0, i32 3
  %11 = load ptr, ptr %10, align 8
  %12 = load ptr, ptr %4, align 8
  %13 = getelementptr inbounds nuw %struct.List, ptr %12, i32 0, i32 1
  %14 = load i32, ptr %13, align 4
  %15 = sext i32 %14 to i64
  %16 = getelementptr inbounds %union.ListCell, ptr %11, i64 %15
  %17 = icmp ult ptr %8, %16
  br i1 %17, label %18, label %20

18:                                               ; preds = %2
  %19 = load ptr, ptr %5, align 8
  store ptr %19, ptr %3, align 8
  br label %21

20:                                               ; preds = %2
  store ptr null, ptr %3, align 8
  br label %21

21:                                               ; preds = %20, %18
  %22 = load ptr, ptr %3, align 8
  ret ptr %22
}

; Function Attrs: inlinehint nounwind uwtable
define internal ptr @list_head(ptr noundef %0) #4 {
  %2 = alloca ptr, align 8
  store ptr %0, ptr %2, align 8
  %3 = load ptr, ptr %2, align 8
  %4 = icmp ne ptr %3, null
  br i1 %4, label %5, label %10

5:                                                ; preds = %1
  %6 = load ptr, ptr %2, align 8
  %7 = getelementptr inbounds nuw %struct.List, ptr %6, i32 0, i32 3
  %8 = load ptr, ptr %7, align 8
  %9 = getelementptr inbounds %union.ListCell, ptr %8, i64 0
  br label %11

10:                                               ; preds = %1
  br label %11

11:                                               ; preds = %10, %5
  %12 = phi ptr [ %9, %5 ], [ null, %10 ]
  ret ptr %12
}

; Function Attrs: nounwind uwtable
define internal ptr @fix_indexqual_operand(ptr noundef %0, ptr noundef %1, i32 noundef %2) #0 {
  %4 = alloca ptr, align 8
  %5 = alloca ptr, align 8
  %6 = alloca ptr, align 8
  %7 = alloca i32, align 4
  %8 = alloca ptr, align 8
  %9 = alloca i32, align 4
  %10 = alloca ptr, align 8
  %11 = alloca i32, align 4
  %12 = alloca ptr, align 8
  store ptr %0, ptr %5, align 8
  store ptr %1, ptr %6, align 8
  store i32 %2, ptr %7, align 4
  call void @llvm.lifetime.start.p0(i64 8, ptr %8) #10
  call void @llvm.lifetime.start.p0(i64 4, ptr %9) #10
  call void @llvm.lifetime.start.p0(i64 8, ptr %10) #10
  %13 = load ptr, ptr %5, align 8
  %14 = getelementptr inbounds nuw %struct.Node, ptr %13, i32 0, i32 0
  %15 = load i32, ptr %14, align 4
  %16 = icmp eq i32 %15, 27
  br i1 %16, label %17, label %21

17:                                               ; preds = %3
  %18 = load ptr, ptr %5, align 8
  %19 = getelementptr inbounds nuw %struct.RelabelType, ptr %18, i32 0, i32 1
  %20 = load ptr, ptr %19, align 8
  store ptr %20, ptr %5, align 8
  br label %21

21:                                               ; preds = %17, %3
  %22 = load ptr, ptr %6, align 8
  %23 = getelementptr inbounds nuw %struct.IndexOptInfo, ptr %22, i32 0, i32 9
  %24 = load ptr, ptr %23, align 8
  %25 = load i32, ptr %7, align 4
  %26 = sext i32 %25 to i64
  %27 = getelementptr inbounds i32, ptr %24, i64 %26
  %28 = load i32, ptr %27, align 4
  %29 = icmp ne i32 %28, 0
  br i1 %29, label %30, label %81

30:                                               ; preds = %21
  %31 = load ptr, ptr %5, align 8
  %32 = getelementptr inbounds nuw %struct.Node, ptr %31, i32 0, i32 0
  %33 = load i32, ptr %32, align 4
  %34 = icmp eq i32 %33, 6
  br i1 %34, label %35, label %69

35:                                               ; preds = %30
  %36 = load ptr, ptr %5, align 8
  %37 = getelementptr inbounds nuw %struct.Var, ptr %36, i32 0, i32 1
  %38 = load i32, ptr %37, align 4
  %39 = load ptr, ptr %6, align 8
  %40 = getelementptr inbounds nuw %struct.IndexOptInfo, ptr %39, i32 0, i32 3
  %41 = load ptr, ptr %40, align 8
  %42 = getelementptr inbounds nuw %struct.RelOptInfo, ptr %41, i32 0, i32 17
  %43 = load i32, ptr %42, align 8
  %44 = icmp eq i32 %38, %43
  br i1 %44, label %45, label %69

45:                                               ; preds = %35
  %46 = load ptr, ptr %5, align 8
  %47 = getelementptr inbounds nuw %struct.Var, ptr %46, i32 0, i32 2
  %48 = load i16, ptr %47, align 8
  %49 = sext i16 %48 to i32
  %50 = load ptr, ptr %6, align 8
  %51 = getelementptr inbounds nuw %struct.IndexOptInfo, ptr %50, i32 0, i32 9
  %52 = load ptr, ptr %51, align 8
  %53 = load i32, ptr %7, align 4
  %54 = sext i32 %53 to i64
  %55 = getelementptr inbounds i32, ptr %52, i64 %54
  %56 = load i32, ptr %55, align 4
  %57 = icmp eq i32 %49, %56
  br i1 %57, label %58, label %69

58:                                               ; preds = %45
  %59 = load ptr, ptr %5, align 8
  %60 = call ptr @copyObjectImpl(ptr noundef %59)
  store ptr %60, ptr %8, align 8
  %61 = load ptr, ptr %8, align 8
  %62 = getelementptr inbounds nuw %struct.Var, ptr %61, i32 0, i32 1
  store i32 -3, ptr %62, align 4
  %63 = load i32, ptr %7, align 4
  %64 = add i32 %63, 1
  %65 = trunc i32 %64 to i16
  %66 = load ptr, ptr %8, align 8
  %67 = getelementptr inbounds nuw %struct.Var, ptr %66, i32 0, i32 2
  store i16 %65, ptr %67, align 8
  %68 = load ptr, ptr %8, align 8
  store ptr %68, ptr %4, align 8
  store i32 1, ptr %11, align 4
  br label %185

69:                                               ; preds = %45, %35, %30
  br label %70

70:                                               ; preds = %69
  br i1 true, label %71, label %73

71:                                               ; preds = %70
  %72 = call zeroext i1 @errstart_cold(i32 noundef 21, ptr noundef null) #11
  br i1 %72, label %75, label %77

73:                                               ; preds = %70
  %74 = call zeroext i1 @errstart(i32 noundef 21, ptr noundef null)
  br i1 %74, label %75, label %77

75:                                               ; preds = %73, %71
  %76 = call i32 (ptr, ...) @errmsg_internal(ptr noundef @.str.5)
  call void @errfinish(ptr noundef @.str.1, i32 noundef 5237, ptr noundef @__func__.fix_indexqual_operand)
  br label %77

77:                                               ; preds = %75, %73, %71
  unreachable

78:                                               ; No predecessors!
  br label %79

79:                                               ; preds = %78
  br label %80

80:                                               ; preds = %79
  br label %81

81:                                               ; preds = %80, %21
  %82 = load ptr, ptr %6, align 8
  %83 = getelementptr inbounds nuw %struct.IndexOptInfo, ptr %82, i32 0, i32 19
  %84 = load ptr, ptr %83, align 8
  %85 = call ptr @list_head(ptr noundef %84)
  store ptr %85, ptr %10, align 8
  store i32 0, ptr %9, align 4
  br label %86

86:                                               ; preds = %171, %81
  %87 = load i32, ptr %9, align 4
  %88 = load ptr, ptr %6, align 8
  %89 = getelementptr inbounds nuw %struct.IndexOptInfo, ptr %88, i32 0, i32 7
  %90 = load i32, ptr %89, align 4
  %91 = icmp slt i32 %87, %90
  br i1 %91, label %92, label %174

92:                                               ; preds = %86
  %93 = load ptr, ptr %6, align 8
  %94 = getelementptr inbounds nuw %struct.IndexOptInfo, ptr %93, i32 0, i32 9
  %95 = load ptr, ptr %94, align 8
  %96 = load i32, ptr %9, align 4
  %97 = sext i32 %96 to i64
  %98 = getelementptr inbounds i32, ptr %95, i64 %97
  %99 = load i32, ptr %98, align 4
  %100 = icmp eq i32 %99, 0
  br i1 %100, label %101, label %170

101:                                              ; preds = %92
  %102 = load ptr, ptr %10, align 8
  %103 = icmp eq ptr %102, null
  br i1 %103, label %104, label %115

104:                                              ; preds = %101
  br label %105

105:                                              ; preds = %104
  br i1 true, label %106, label %108

106:                                              ; preds = %105
  %107 = call zeroext i1 @errstart_cold(i32 noundef 21, ptr noundef null) #11
  br i1 %107, label %110, label %112

108:                                              ; preds = %105
  %109 = call zeroext i1 @errstart(i32 noundef 21, ptr noundef null)
  br i1 %109, label %110, label %112

110:                                              ; preds = %108, %106
  %111 = call i32 (ptr, ...) @errmsg_internal(ptr noundef @.str.6)
  call void @errfinish(ptr noundef @.str.1, i32 noundef 5247, ptr noundef @__func__.fix_indexqual_operand)
  br label %112

112:                                              ; preds = %110, %108, %106
  unreachable

113:                                              ; No predecessors!
  br label %114

114:                                              ; preds = %113
  br label %115

115:                                              ; preds = %114, %101
  %116 = load i32, ptr %9, align 4
  %117 = load i32, ptr %7, align 4
  %118 = icmp eq i32 %116, %117
  br i1 %118, label %119, label %164

119:                                              ; preds = %115
  call void @llvm.lifetime.start.p0(i64 8, ptr %12) #10
  %120 = load ptr, ptr %10, align 8
  %121 = load ptr, ptr %120, align 8
  store ptr %121, ptr %12, align 8
  %122 = load ptr, ptr %12, align 8
  %123 = icmp ne ptr %122, null
  br i1 %123, label %124, label %133

124:                                              ; preds = %119
  %125 = load ptr, ptr %12, align 8
  %126 = getelementptr inbounds nuw %struct.Node, ptr %125, i32 0, i32 0
  %127 = load i32, ptr %126, align 4
  %128 = icmp eq i32 %127, 27
  br i1 %128, label %129, label %133

129:                                              ; preds = %124
  %130 = load ptr, ptr %12, align 8
  %131 = getelementptr inbounds nuw %struct.RelabelType, ptr %130, i32 0, i32 1
  %132 = load ptr, ptr %131, align 8
  store ptr %132, ptr %12, align 8
  br label %133

133:                                              ; preds = %129, %124, %119
  %134 = load ptr, ptr %5, align 8
  %135 = load ptr, ptr %12, align 8
  %136 = call zeroext i1 @equal(ptr noundef %134, ptr noundef %135)
  br i1 %136, label %137, label %149

137:                                              ; preds = %133
  %138 = load i32, ptr %7, align 4
  %139 = add i32 %138, 1
  %140 = trunc i32 %139 to i16
  %141 = load ptr, ptr %10, align 8
  %142 = load ptr, ptr %141, align 8
  %143 = call i32 @exprType(ptr noundef %142)
  %144 = load ptr, ptr %10, align 8
  %145 = load ptr, ptr %144, align 8
  %146 = call i32 @exprCollation(ptr noundef %145)
  %147 = call ptr @makeVar(i32 noundef -3, i16 noundef signext %140, i32 noundef %143, i32 noundef -1, i32 noundef %146, i32 noundef 0)
  store ptr %147, ptr %8, align 8
  %148 = load ptr, ptr %8, align 8
  store ptr %148, ptr %4, align 8
  store i32 1, ptr %11, align 4
  br label %161

149:                                              ; preds = %133
  br label %150

150:                                              ; preds = %149
  br i1 true, label %151, label %153

151:                                              ; preds = %150
  %152 = call zeroext i1 @errstart_cold(i32 noundef 21, ptr noundef null) #11
  br i1 %152, label %155, label %157

153:                                              ; preds = %150
  %154 = call zeroext i1 @errstart(i32 noundef 21, ptr noundef null)
  br i1 %154, label %155, label %157

155:                                              ; preds = %153, %151
  %156 = call i32 (ptr, ...) @errmsg_internal(ptr noundef @.str.5)
  call void @errfinish(ptr noundef @.str.1, i32 noundef 5264, ptr noundef @__func__.fix_indexqual_operand)
  br label %157

157:                                              ; preds = %155, %153, %151
  unreachable

158:                                              ; No predecessors!
  br label %159

159:                                              ; preds = %158
  br label %160

160:                                              ; preds = %159
  store i32 0, ptr %11, align 4
  br label %161

161:                                              ; preds = %160, %137
  call void @llvm.lifetime.end.p0(i64 8, ptr %12) #10
  %162 = load i32, ptr %11, align 4
  switch i32 %162, label %185 [
    i32 0, label %163
  ]

163:                                              ; preds = %161
  br label %164

164:                                              ; preds = %163, %115
  %165 = load ptr, ptr %6, align 8
  %166 = getelementptr inbounds nuw %struct.IndexOptInfo, ptr %165, i32 0, i32 19
  %167 = load ptr, ptr %166, align 8
  %168 = load ptr, ptr %10, align 8
  %169 = call ptr @lnext(ptr noundef %167, ptr noundef %168)
  store ptr %169, ptr %10, align 8
  br label %170

170:                                              ; preds = %164, %92
  br label %171

171:                                              ; preds = %170
  %172 = load i32, ptr %9, align 4
  %173 = add i32 %172, 1
  store i32 %173, ptr %9, align 4
  br label %86, !llvm.loop !48

174:                                              ; preds = %86
  br label %175

175:                                              ; preds = %174
  br i1 true, label %176, label %178

176:                                              ; preds = %175
  %177 = call zeroext i1 @errstart_cold(i32 noundef 21, ptr noundef null) #11
  br i1 %177, label %180, label %182

178:                                              ; preds = %175
  %179 = call zeroext i1 @errstart(i32 noundef 21, ptr noundef null)
  br i1 %179, label %180, label %182

180:                                              ; preds = %178, %176
  %181 = call i32 (ptr, ...) @errmsg_internal(ptr noundef @.str.5)
  call void @errfinish(ptr noundef @.str.1, i32 noundef 5271, ptr noundef @__func__.fix_indexqual_operand)
  br label %182

182:                                              ; preds = %180, %178, %176
  unreachable

183:                                              ; No predecessors!
  br label %184

184:                                              ; preds = %183
  store ptr null, ptr %4, align 8
  store i32 1, ptr %11, align 4
  br label %185

185:                                              ; preds = %184, %161, %58
  call void @llvm.lifetime.end.p0(i64 8, ptr %10) #10
  call void @llvm.lifetime.end.p0(i64 4, ptr %9) #10
  call void @llvm.lifetime.end.p0(i64 8, ptr %8) #10
  %186 = load ptr, ptr %4, align 8
  ret ptr %186
}