; Function Attrs: nounwind uwtable
define internal fastcc ptr @fix_indexqual_operand(ptr noundef %0, ptr noundef readonly captures(none) %1, i32 noundef %2) unnamed_addr #0 {
  %4 = load i32, ptr %0, align 4
  %5 = icmp eq i32 %4, 27
  br i1 %5, label %6, label %9

6:                                                ; preds = %3
  %7 = getelementptr inbounds nuw i8, ptr %0, i64 8
  %8 = load ptr, ptr %7, align 8
  br label %9

9:                                                ; preds = %6, %3
  %.040 = phi ptr [ %8, %6 ], [ %0, %3 ]
  %10 = getelementptr inbounds nuw i8, ptr %1, i64 56
  %11 = load ptr, ptr %10, align 8
  %12 = sext i32 %2 to i64
  %13 = getelementptr inbounds i32, ptr %11, i64 %12
  %14 = load i32, ptr %13, align 4
  %.not = icmp eq i32 %14, 0
  br i1 %.not, label %40, label %15

15:                                               ; preds = %9
  %16 = load i32, ptr %.040, align 4
  %17 = icmp eq i32 %16, 6
  br i1 %17, label %18, label %37

18:                                               ; preds = %15
  %19 = getelementptr inbounds nuw i8, ptr %.040, i64 4
  %20 = load i32, ptr %19, align 4
  %21 = getelementptr inbounds nuw i8, ptr %1, i64 16
  %22 = load ptr, ptr %21, align 8
  %23 = getelementptr inbounds nuw i8, ptr %22, i64 112
  %24 = load i32, ptr %23, align 8
  %25 = icmp eq i32 %20, %24
  br i1 %25, label %26, label %37

26:                                               ; preds = %18
  %27 = getelementptr inbounds nuw i8, ptr %.040, i64 8
  %28 = load i16, ptr %27, align 8
  %29 = sext i16 %28 to i32
  %30 = icmp eq i32 %14, %29
  br i1 %30, label %31, label %37

31:                                               ; preds = %26
  %32 = tail call ptr @copyObjectImpl(ptr noundef nonnull %.040) #12
  %33 = getelementptr inbounds nuw i8, ptr %32, i64 4
  store i32 -3, ptr %33, align 4
  %34 = trunc i32 %2 to i16
  %35 = add i16 %34, 1
  %36 = getelementptr inbounds nuw i8, ptr %32, i64 8
  store i16 %35, ptr %36, align 8
  br label %93

37:                                               ; preds = %26, %18, %15
  %38 = tail call zeroext i1 @errstart_cold(i32 noundef 21, ptr noundef null) #13
  tail call void @llvm.assume(i1 %38)
  %39 = tail call i32 (ptr, ...) @errmsg_internal(ptr noundef nonnull @.str.5) #12
  tail call void @errfinish(ptr noundef nonnull @.str.1, i32 noundef 5237, ptr noundef nonnull @__func__.fix_indexqual_operand) #12
  unreachable

40:                                               ; preds = %9
  %41 = getelementptr inbounds nuw i8, ptr %1, i64 136
  %42 = load ptr, ptr %41, align 8
  %.not.i = icmp eq ptr %42, null
  br i1 %.not.i, label %list_head.exit, label %43

43:                                               ; preds = %40
  %44 = getelementptr inbounds nuw i8, ptr %42, i64 16
  %45 = load ptr, ptr %44, align 8
  br label %list_head.exit

list_head.exit:                                   ; preds = %40, %43
  %46 = phi ptr [ %45, %43 ], [ null, %40 ]
  %47 = getelementptr inbounds nuw i8, ptr %1, i64 44
  %48 = load i32, ptr %47, align 4
  %49 = icmp sgt i32 %48, 0
  br i1 %49, label %.lr.ph, label %._crit_edge

.lr.ph:                                           ; preds = %list_head.exit
  %50 = getelementptr i8, ptr %42, i64 4
  %51 = getelementptr i8, ptr %42, i64 16
  %52 = zext i32 %2 to i64
  %wide.trip.count = zext nneg i32 %48 to i64
  br label %53

53:                                               ; preds = %.lr.ph, %90
  %indvars.iv = phi i64 [ 0, %.lr.ph ], [ %indvars.iv.next, %90 ]
  %.03750 = phi ptr [ %46, %.lr.ph ], [ %.1, %90 ]
  %54 = getelementptr inbounds nuw i32, ptr %11, i64 %indvars.iv
  %55 = load i32, ptr %54, align 4
  %56 = icmp eq i32 %55, 0
  br i1 %56, label %57, label %90

57:                                               ; preds = %53
  %58 = icmp eq ptr %.03750, null
  br i1 %58, label %59, label %62

59:                                               ; preds = %57
  %60 = tail call zeroext i1 @errstart_cold(i32 noundef 21, ptr noundef null) #13
  tail call void @llvm.assume(i1 %60)
  %61 = tail call i32 (ptr, ...) @errmsg_internal(ptr noundef nonnull @.str.6) #12
  tail call void @errfinish(ptr noundef nonnull @.str.1, i32 noundef 5247, ptr noundef nonnull @__func__.fix_indexqual_operand) #12
  unreachable

62:                                               ; preds = %57
  %63 = icmp eq i64 %indvars.iv, %52
  br i1 %63, label %64, label %85

64:                                               ; preds = %62
  %65 = load ptr, ptr %.03750, align 8
  %.not45 = icmp eq ptr %65, null
  br i1 %.not45, label %72, label %66

66:                                               ; preds = %64
  %67 = load i32, ptr %65, align 4
  %68 = icmp eq i32 %67, 27
  br i1 %68, label %69, label %72

69:                                               ; preds = %66
  %70 = getelementptr inbounds nuw i8, ptr %65, i64 8
  %71 = load ptr, ptr %70, align 8
  br label %72

72:                                               ; preds = %69, %66, %64
  %.0 = phi ptr [ %71, %69 ], [ %65, %66 ], [ null, %64 ]
  %73 = tail call zeroext i1 @equal(ptr noundef %.040, ptr noundef %.0) #12
  br i1 %73, label %74, label %82

74:                                               ; preds = %72
  %75 = trunc i32 %2 to i16
  %76 = add i16 %75, 1
  %77 = load ptr, ptr %.03750, align 8
  %78 = tail call i32 @exprType(ptr noundef %77) #12
  %79 = load ptr, ptr %.03750, align 8
  %80 = tail call i32 @exprCollation(ptr noundef %79) #12
  %81 = tail call ptr @makeVar(i32 noundef -3, i16 noundef signext %76, i32 noundef %78, i32 noundef -1, i32 noundef %80, i32 noundef 0) #12
  br label %93

82:                                               ; preds = %72
  %83 = tail call zeroext i1 @errstart_cold(i32 noundef 21, ptr noundef null) #13
  tail call void @llvm.assume(i1 %83)
  %84 = tail call i32 (ptr, ...) @errmsg_internal(ptr noundef nonnull @.str.5) #12
  tail call void @errfinish(ptr noundef nonnull @.str.1, i32 noundef 5264, ptr noundef nonnull @__func__.fix_indexqual_operand) #12
  unreachable

85:                                               ; preds = %62
  %.val = load i32, ptr %50, align 4
  %.val46 = load ptr, ptr %51, align 8
  %86 = getelementptr inbounds nuw i8, ptr %.03750, i64 8
  %87 = sext i32 %.val to i64
  %88 = getelementptr inbounds %union.ListCell, ptr %.val46, i64 %87
  %89 = icmp ult ptr %86, %88
  %..i = select i1 %89, ptr %86, ptr null
  br label %90

90:                                               ; preds = %53, %85
  %.1 = phi ptr [ %..i, %85 ], [ %.03750, %53 ]
  %indvars.iv.next = add nuw nsw i64 %indvars.iv, 1
  %exitcond.not = icmp eq i64 %indvars.iv.next, %wide.trip.count
  br i1 %exitcond.not, label %._crit_edge, label %53, !llvm.loop !22

._crit_edge:                                      ; preds = %90, %list_head.exit
  %91 = tail call zeroext i1 @errstart_cold(i32 noundef 21, ptr noundef null) #13
  tail call void @llvm.assume(i1 %91)
  %92 = tail call i32 (ptr, ...) @errmsg_internal(ptr noundef nonnull @.str.5) #12
  tail call void @errfinish(ptr noundef nonnull @.str.1, i32 noundef 5271, ptr noundef nonnull @__func__.fix_indexqual_operand) #12
  unreachable

93:                                               ; preds = %74, %31
  %.039 = phi ptr [ %32, %31 ], [ %81, %74 ]
  ret ptr %.039
}